target datalayout = "e-m:e-p270:32:32-p271:32:32-p272:64:64-i64:64-i128:128-f80:128-n8:16:32:64-S128"
target triple = "x86_64-pc-linux-gnu"

%struct.Gia_MmFixed_t_ = type { i32, i32, i32, i32, ptr, i32, i32, i32, ptr, i32, i32 }

; Function Attrs: nounwind uwtable
define ptr @Gia_MmFixedStart(i32 noundef %0, i32 noundef %1) #0 {
  %3 = alloca i32, align 4
  %4 = alloca i32, align 4
  %5 = alloca ptr, align 8
  store i32 %0, ptr %3, align 4, !tbaa !3
  store i32 %1, ptr %4, align 4, !tbaa !3
  call void @llvm.lifetime.start.p0(i64 8, ptr %5) #7
  %6 = call noalias ptr @malloc(i64 noundef 56) #8
  store ptr %6, ptr %5, align 8, !tbaa !7
  %7 = load ptr, ptr %5, align 8, !tbaa !7
  call void @llvm.memset.p0.i64(ptr align 8 %7, i8 0, i64 56, i1 false)
  %8 = load i32, ptr %3, align 4, !tbaa !3
  %9 = load ptr, ptr %5, align 8, !tbaa !7
  %10 = getelementptr inbounds nuw %struct.Gia_MmFixed_t_, ptr %9, i32 0, i32 0
  store i32 %8, ptr %10, align 8, !tbaa !10
  %11 = load ptr, ptr %5, align 8, !tbaa !7
  %12 = getelementptr inbounds nuw %struct.Gia_MmFixed_t_, ptr %11, i32 0, i32 1
  store i32 0, ptr %12, align 4, !tbaa !14
  %13 = load ptr, ptr %5, align 8, !tbaa !7
  %14 = getelementptr inbounds nuw %struct.Gia_MmFixed_t_, ptr %13, i32 0, i32 2
  store i32 0, ptr %14, align 8, !tbaa !15
  %15 = load ptr, ptr %5, align 8, !tbaa !7
  %16 = getelementptr inbounds nuw %struct.Gia_MmFixed_t_, ptr %15, i32 0, i32 4
  store ptr null, ptr %16, align 8, !tbaa !16
  %17 = load i32, ptr %4, align 4, !tbaa !3
  %18 = sdiv i32 %17, 8
  %19 = load ptr, ptr %5, align 8, !tbaa !7
  %20 = getelementptr inbounds nuw %struct.Gia_MmFixed_t_, ptr %19, i32 0, i32 5
  store i32 %18, ptr %20, align 8, !tbaa !17
  %21 = load ptr, ptr %5, align 8, !tbaa !7
  %22 = getelementptr inbounds nuw %struct.Gia_MmFixed_t_, ptr %21, i32 0, i32 5
  %23 = load i32, ptr %22, align 8, !tbaa !17
  %24 = icmp slt i32 %23, 8
  br i1 %24, label %25, label %28

25:                                               ; preds = %2
  %26 = load ptr, ptr %5, align 8, !tbaa !7
  %27 = getelementptr inbounds nuw %struct.Gia_MmFixed_t_, ptr %26, i32 0, i32 5
  store i32 8, ptr %27, align 8, !tbaa !17
  br label %28

28:                                               ; preds = %25, %2
  %29 = load ptr, ptr %5, align 8, !tbaa !7
  %30 = getelementptr inbounds nuw %struct.Gia_MmFixed_t_, ptr %29, i32 0, i32 6
  store i32 64, ptr %30, align 4, !tbaa !18
  %31 = load ptr, ptr %5, align 8, !tbaa !7
  %32 = getelementptr inbounds nuw %struct.Gia_MmFixed_t_, ptr %31, i32 0, i32 7
  store i32 0, ptr %32, align 8, !tbaa !19
  %33 = load ptr, ptr %5, align 8, !tbaa !7
  %34 = getelementptr inbounds nuw %struct.Gia_MmFixed_t_, ptr %33, i32 0, i32 6
  %35 = load i32, ptr %34, align 4, !tbaa !18
  %36 = sext i32 %35 to i64
  %37 = mul i64 8, %36
  %38 = call noalias ptr @malloc(i64 noundef %37) #8
  %39 = load ptr, ptr %5, align 8, !tbaa !7
  %40 = getelementptr inbounds nuw %struct.Gia_MmFixed_t_, ptr %39, i32 0, i32 8
  store ptr %38, ptr %40, align 8, !tbaa !20
  %41 = load ptr, ptr %5, align 8, !tbaa !7
  %42 = getelementptr inbounds nuw %struct.Gia_MmFixed_t_, ptr %41, i32 0, i32 9
  store i32 0, ptr %42, align 8, !tbaa !21
  %43 = load ptr, ptr %5, align 8, !tbaa !7
  %44 = getelementptr inbounds nuw %struct.Gia_MmFixed_t_, ptr %43, i32 0, i32 10
  store i32 0, ptr %44, align 4, !tbaa !22
  %45 = load ptr, ptr %5, align 8, !tbaa !7
  call void @llvm.lifetime.end.p0(i64 8, ptr %5) #7
  ret ptr %45
}