; Function Attrs: mustprogress nofree nounwind willreturn memory(write, argmem: none, inaccessiblemem: readwrite) uwtable
define noalias noundef ptr @Gia_MmFixedStart(i32 noundef %0, i32 noundef %1) local_unnamed_addr #0 {
  %calloc = tail call dereferenceable_or_null(56) ptr @calloc(i64 1, i64 56)
  store i32 %0, ptr %calloc, align 8, !tbaa !3
  %3 = tail call i32 @llvm.smax.i32(i32 %1, i32 64)
  %spec.select = lshr i32 %3, 3
  %4 = getelementptr inbounds nuw i8, ptr %calloc, i64 24
  store i32 %spec.select, ptr %4, align 8, !tbaa !11
  %5 = getelementptr inbounds nuw i8, ptr %calloc, i64 28
  store i32 64, ptr %5, align 4, !tbaa !12
  %6 = tail call noalias dereferenceable_or_null(512) ptr @malloc(i64 noundef 512) #14
  %7 = getelementptr inbounds nuw i8, ptr %calloc, i64 40
  store ptr %6, ptr %7, align 8, !tbaa !13
  ret ptr %calloc
}